target datalayout = "e-m:e-p270:32:32-p271:32:32-p272:64:64-i64:64-i128:128-f80:128-n8:16:32:64-S128"
target triple = "x86_64-pc-linux-gnu"

@stderr = external global ptr, align 8
@.str.4 = private unnamed_addr constant [58 x i8] c"integer overflow when trying to allocate %zu * %zu bytes\0A\00", align 1
@.str.5 = private unnamed_addr constant [49 x i8] c"out of memory when trying to allocate %zu bytes\0A\00", align 1

; Function Attrs: inlinehint nounwind uwtable
define internal ptr @gv_realloc(ptr noundef %0, i64 noundef %1, i64 noundef %2) #2 {
  %4 = alloca ptr, align 8
  %5 = alloca ptr, align 8
  %6 = alloca i64, align 8
  %7 = alloca i64, align 8
  %8 = alloca ptr, align 8
  store ptr %0, ptr %5, align 8, !tbaa !26
  store i64 %1, ptr %6, align 8, !tbaa !22
  store i64 %2, ptr %7, align 8, !tbaa !22
  %9 = load i64, ptr %7, align 8, !tbaa !22
  %10 = icmp eq i64 %9, 0
  br i1 %10, label %11, label %13

11:                                               ; preds = %3
  %12 = load ptr, ptr %5, align 8, !tbaa !26
  call void @free(ptr noundef %12) #11
  store ptr null, ptr %4, align 8
  br label %36

13:                                               ; preds = %3
  call void @llvm.lifetime.start.p0(i64 8, ptr %8) #11
  %14 = load ptr, ptr %5, align 8, !tbaa !26
  %15 = load i64, ptr %7, align 8, !tbaa !22
  %16 = call ptr @realloc(ptr noundef %14, i64 noundef %15) #15
  store ptr %16, ptr %8, align 8, !tbaa !26
  %17 = load ptr, ptr %8, align 8, !tbaa !26
  %18 = icmp eq ptr %17, null
  br i1 %18, label %19, label %23

19:                                               ; preds = %13
  %20 = load ptr, ptr @stderr, align 8, !tbaa !24
  %21 = load i64, ptr %7, align 8, !tbaa !22
  %22 = call i32 (ptr, ptr, ...) @fprintf(ptr noundef %20, ptr noundef @.str.5, i64 noundef %21) #11
  call void @graphviz_exit(i32 noundef 1) #12
  unreachable

23:                                               ; preds = %13
  %24 = load i64, ptr %7, align 8, !tbaa !22
  %25 = load i64, ptr %6, align 8, !tbaa !22
  %26 = icmp ugt i64 %24, %25
  br i1 %26, label %27, label %34

27:                                               ; preds = %23
  %28 = load ptr, ptr %8, align 8, !tbaa !26
  %29 = load i64, ptr %6, align 8, !tbaa !22
  %30 = getelementptr inbounds nuw i8, ptr %28, i64 %29
  %31 = load i64, ptr %7, align 8, !tbaa !22
  %32 = load i64, ptr %6, align 8, !tbaa !22
  %33 = sub i64 %31, %32
  call void @llvm.memset.p0.i64(ptr align 1 %30, i8 0, i64 %33, i1 false)
  br label %34

34:                                               ; preds = %27, %23
  %35 = load ptr, ptr %8, align 8, !tbaa !26
  store ptr %35, ptr %4, align 8
  call void @llvm.lifetime.end.p0(i64 8, ptr %8) #11
  br label %36

36:                                               ; preds = %34, %11
  %37 = load ptr, ptr %4, align 8
  ret ptr %37
}

; Function Attrs: inlinehint nounwind uwtable
define internal ptr @gv_recalloc(ptr noundef %0, i64 noundef %1, i64 noundef %2, i64 noundef %3) #2 {
  %5 = alloca ptr, align 8
  %6 = alloca i64, align 8
  %7 = alloca i64, align 8
  %8 = alloca i64, align 8
  store ptr %0, ptr %5, align 8, !tbaa !26
  store i64 %1, ptr %6, align 8, !tbaa !22
  store i64 %2, ptr %7, align 8, !tbaa !22
  store i64 %3, ptr %8, align 8, !tbaa !22
  %9 = load i64, ptr %7, align 8, !tbaa !22
  %10 = load i64, ptr %8, align 8, !tbaa !22
  %11 = udiv i64 -1, %10
  %12 = icmp ugt i64 %9, %11
  br i1 %12, label %13, label %18

13:                                               ; preds = %4
  %14 = load ptr, ptr @stderr, align 8, !tbaa !24
  %15 = load i64, ptr %7, align 8, !tbaa !22
  %16 = load i64, ptr %8, align 8, !tbaa !22
  %17 = call i32 (ptr, ptr, ...) @fprintf(ptr noundef %14, ptr noundef @.str.4, i64 noundef %15, i64 noundef %16) #11
  call void @graphviz_exit(i32 noundef 1) #12
  unreachable

18:                                               ; preds = %4
  %19 = load ptr, ptr %5, align 8, !tbaa !26
  %20 = load i64, ptr %6, align 8, !tbaa !22
  %21 = load i64, ptr %8, align 8, !tbaa !22
  %22 = mul i64 %20, %21
  %23 = load i64, ptr %7, align 8, !tbaa !22
  %24 = load i64, ptr %8, align 8, !tbaa !22
  %25 = mul i64 %23, %24
  %26 = call ptr @gv_realloc(ptr noundef %19, i64 noundef %22, i64 noundef %25)
  ret ptr %26
}

; Function Attrs: nounwind uwtable
define internal void @check_or_realloc_arrays(i32 noundef %0, ptr noundef %1, ptr noundef %2, ptr noundef %3, ptr noundef %4, ptr noundef %5) #0 {
  %7 = alloca i32, align 4
  %8 = alloca ptr, align 8
  %9 = alloca ptr, align 8
  %10 = alloca ptr, align 8
  %11 = alloca ptr, align 8
  %12 = alloca ptr, align 8
  %13 = alloca i32, align 4
  store i32 %0, ptr %7, align 4, !tbaa !12
  store ptr %1, ptr %8, align 8, !tbaa !14
  store ptr %2, ptr %9, align 8, !tbaa !14
  store ptr %3, ptr %10, align 8, !tbaa !16
  store ptr %4, ptr %11, align 8, !tbaa !16
  store ptr %5, ptr %12, align 8, !tbaa !16
  %14 = load ptr, ptr %8, align 8, !tbaa !14
  %15 = load i32, ptr %14, align 4, !tbaa !12
  %16 = load ptr, ptr %9, align 8, !tbaa !14
  %17 = load i32, ptr %16, align 4, !tbaa !12
  %18 = icmp sge i32 %15, %17
  br i1 %18, label %19, label %56

19:                                               ; preds = %6
  call void @llvm.lifetime.start.p0(i64 4, ptr %13) #11
  %20 = load ptr, ptr %8, align 8, !tbaa !14
  %21 = load i32, ptr %20, align 4, !tbaa !12
  %22 = add nsw i32 %21, 10
  store i32 %22, ptr %13, align 4, !tbaa !12
  %23 = load ptr, ptr %10, align 8, !tbaa !16
  %24 = load ptr, ptr %23, align 8, !tbaa !10
  %25 = load i32, ptr %7, align 4, !tbaa !12
  %26 = load ptr, ptr %9, align 8, !tbaa !14
  %27 = load i32, ptr %26, align 4, !tbaa !12
  %28 = mul nsw i32 %25, %27
  %29 = sext i32 %28 to i64
  %30 = load i32, ptr %7, align 4, !tbaa !12
  %31 = load i32, ptr %13, align 4, !tbaa !12
  %32 = mul nsw i32 %30, %31
  %33 = sext i32 %32 to i64
  %34 = call ptr @gv_recalloc(ptr noundef %24, i64 noundef %29, i64 noundef %33, i64 noundef 8)
  %35 = load ptr, ptr %10, align 8, !tbaa !16
  store ptr %34, ptr %35, align 8, !tbaa !10
  %36 = load ptr, ptr %11, align 8, !tbaa !16
  %37 = load ptr, ptr %36, align 8, !tbaa !10
  %38 = load ptr, ptr %9, align 8, !tbaa !14
  %39 = load i32, ptr %38, align 4, !tbaa !12
  %40 = sext i32 %39 to i64
  %41 = load i32, ptr %13, align 4, !tbaa !12
  %42 = sext i32 %41 to i64
  %43 = call ptr @gv_recalloc(ptr noundef %37, i64 noundef %40, i64 noundef %42, i64 noundef 8)
  %44 = load ptr, ptr %11, align 8, !tbaa !16
  store ptr %43, ptr %44, align 8, !tbaa !10
  %45 = load ptr, ptr %12, align 8, !tbaa !16
  %46 = load ptr, ptr %45, align 8, !tbaa !10
  %47 = load ptr, ptr %9, align 8, !tbaa !14
  %48 = load i32, ptr %47, align 4, !tbaa !12
  %49 = sext i32 %48 to i64
  %50 = load i32, ptr %13, align 4, !tbaa !12
  %51 = sext i32 %50 to i64
  %52 = call ptr @gv_recalloc(ptr noundef %46, i64 noundef %49, i64 noundef %51, i64 noundef 8)
  %53 = load ptr, ptr %12, align 8, !tbaa !16
  store ptr %52, ptr %53, align 8, !tbaa !10
  %54 = load i32, ptr %13, align 4, !tbaa !12
  %55 = load ptr, ptr %9, align 8, !tbaa !14
  store i32 %54, ptr %55, align 4, !tbaa !12
  call void @llvm.lifetime.end.p0(i64 4, ptr %13) #11
  br label %56

56:                                               ; preds = %19, %6
  ret void
}