; Function Attrs: nounwind uwtable
define internal fastcc void @check_or_realloc_arrays(i32 noundef %0, i32 %.0.val, ptr noundef captures(none) %1, ptr noundef captures(none) %2, ptr noundef captures(none) %3, ptr noundef captures(none) %4) unnamed_addr #0 {
  %6 = load i32, ptr %1, align 4, !tbaa !14
  %.not = icmp slt i32 %.0.val, %6
  br i1 %.not, label %74, label %7

7:                                                ; preds = %5
  %8 = add nsw i32 %.0.val, 10
  %9 = load ptr, ptr %2, align 8, !tbaa !15
  %10 = mul nsw i32 %8, %0
  %11 = sext i32 %10 to i64
  %12 = icmp slt i32 %10, 0
  br i1 %12, label %13, label %16

13:                                               ; preds = %7
  %14 = load ptr, ptr @stderr, align 8, !tbaa !16
  %15 = tail call i32 (ptr, ptr, ...) @fprintf(ptr noundef %14, ptr noundef nonnull @.str.4, i64 noundef range(i64 -2147483648, 2147483648) %11, i64 noundef 8) #16
  tail call fastcc void @graphviz_exit() #17
  unreachable

16:                                               ; preds = %7
  %17 = mul nsw i32 %6, %0
  %18 = sext i32 %17 to i64
  %19 = shl nsw i64 %18, 3
  %20 = shl nuw nsw i64 %11, 3
  %21 = icmp eq i32 %10, 0
  br i1 %21, label %22, label %23

22:                                               ; preds = %16
  tail call void @free(ptr noundef %9) #18
  br label %gv_recalloc.exit

23:                                               ; preds = %16
  %24 = tail call ptr @realloc(ptr noundef %9, i64 noundef range(i64 0, 17179869177) %20) #20
  %25 = icmp eq ptr %24, null
  br i1 %25, label %26, label %29

26:                                               ; preds = %23
  %27 = load ptr, ptr @stderr, align 8, !tbaa !16
  %28 = tail call i32 (ptr, ptr, ...) @fprintf(ptr noundef %27, ptr noundef nonnull @.str.5, i64 noundef range(i64 0, 17179869177) %20) #16
  tail call fastcc void @graphviz_exit() #17
  unreachable

29:                                               ; preds = %23
  %30 = icmp ugt i64 %20, %19
  br i1 %30, label %31, label %gv_recalloc.exit

31:                                               ; preds = %29
  %32 = getelementptr inbounds nuw i8, ptr %24, i64 %19
  %33 = sub nuw nsw i64 %20, %19
  tail call void @llvm.memset.p0.i64(ptr nonnull align 1 %32, i8 0, i64 %33, i1 false)
  br label %gv_recalloc.exit

gv_recalloc.exit:                                 ; preds = %22, %29, %31
  %.0.i.i = phi ptr [ null, %22 ], [ %24, %31 ], [ %24, %29 ]
  store ptr %.0.i.i, ptr %2, align 8, !tbaa !15
  %34 = load ptr, ptr %3, align 8, !tbaa !15
  %35 = sext i32 %8 to i64
  %36 = icmp slt i32 %.0.val, -10
  br i1 %36, label %37, label %40

37:                                               ; preds = %gv_recalloc.exit
  %38 = load ptr, ptr @stderr, align 8, !tbaa !16
  %39 = tail call i32 (ptr, ptr, ...) @fprintf(ptr noundef %38, ptr noundef nonnull @.str.4, i64 noundef range(i64 -2147483648, 2147483648) %35, i64 noundef 8) #16
  tail call fastcc void @graphviz_exit() #17
  unreachable

40:                                               ; preds = %gv_recalloc.exit
  %41 = load i32, ptr %1, align 4, !tbaa !14
  %42 = sext i32 %41 to i64
  %43 = shl nsw i64 %42, 3
  %44 = shl nuw nsw i64 %35, 3
  %45 = icmp eq i32 %8, 0
  br i1 %45, label %57, label %46

46:                                               ; preds = %40
  %47 = tail call ptr @realloc(ptr noundef %34, i64 noundef range(i64 0, 17179869177) %44) #20
  %48 = icmp eq ptr %47, null
  br i1 %48, label %49, label %52

49:                                               ; preds = %46
  %50 = load ptr, ptr @stderr, align 8, !tbaa !16
  %51 = tail call i32 (ptr, ptr, ...) @fprintf(ptr noundef %50, ptr noundef nonnull @.str.5, i64 noundef range(i64 0, 17179869177) %44) #16
  tail call fastcc void @graphviz_exit() #17
  unreachable

52:                                               ; preds = %46
  %53 = icmp ugt i64 %44, %43
  br i1 %53, label %54, label %59

54:                                               ; preds = %52
  %55 = getelementptr inbounds nuw i8, ptr %47, i64 %43
  %56 = sub nuw nsw i64 %44, %43
  tail call void @llvm.memset.p0.i64(ptr nonnull align 1 %55, i8 0, i64 %56, i1 false)
  br label %59

57:                                               ; preds = %40
  tail call void @free(ptr noundef %34) #18
  store ptr null, ptr %3, align 8, !tbaa !15
  %58 = load ptr, ptr %4, align 8, !tbaa !15
  tail call void @free(ptr noundef %58) #18
  br label %gv_recalloc.exit22

59:                                               ; preds = %54, %52
  store ptr %47, ptr %3, align 8, !tbaa !15
  %60 = load ptr, ptr %4, align 8, !tbaa !15
  %61 = load i32, ptr %1, align 4, !tbaa !14
  %62 = sext i32 %61 to i64
  %63 = shl nsw i64 %62, 3
  %64 = tail call ptr @realloc(ptr noundef %60, i64 noundef range(i64 0, 17179869177) %44) #20
  %65 = icmp eq ptr %64, null
  br i1 %65, label %66, label %69

66:                                               ; preds = %59
  %67 = load ptr, ptr @stderr, align 8, !tbaa !16
  %68 = tail call i32 (ptr, ptr, ...) @fprintf(ptr noundef %67, ptr noundef nonnull @.str.5, i64 noundef range(i64 0, 17179869177) %44) #16
  tail call fastcc void @graphviz_exit() #17
  unreachable

69:                                               ; preds = %59
  %70 = icmp ugt i64 %44, %63
  br i1 %70, label %71, label %gv_recalloc.exit22

71:                                               ; preds = %69
  %72 = getelementptr inbounds nuw i8, ptr %64, i64 %63
  %73 = sub nuw nsw i64 %44, %63
  tail call void @llvm.memset.p0.i64(ptr nonnull align 1 %72, i8 0, i64 %73, i1 false)
  br label %gv_recalloc.exit22

gv_recalloc.exit22:                               ; preds = %57, %69, %71
  %.0.i.i21 = phi ptr [ null, %57 ], [ %64, %71 ], [ %64, %69 ]
  store ptr %.0.i.i21, ptr %4, align 8, !tbaa !15
  store i32 %8, ptr %1, align 4, !tbaa !14
  br label %74

74:                                               ; preds = %gv_recalloc.exit22, %5
  ret void
}